target datalayout = "e-m:e-p270:32:32-p271:32:32-p272:64:64-i64:64-i128:128-f80:128-n8:16:32:64-S128"
target triple = "x86_64-pc-linux-gnu"

%struct._fvalue_t = type { ptr, %union.anon.1 }
%union.anon.1 = type { %struct._protocol_value_t }
%struct._protocol_value_t = type { ptr, i32, ptr, i8 }

@.str.60 = private unnamed_addr constant [5 x i8] c"true\00", align 1
@.str.61 = private unnamed_addr constant [6 x i8] c"false\00", align 1
@.str.62 = private unnamed_addr constant [28 x i8] c"\22%s\22 is not a valid boolean\00", align 1

; Function Attrs: null_pointer_is_valid sspstrong uwtable
define internal zeroext i1 @boolean_from_literal(ptr noundef %0, ptr noundef %1, i1 noundef zeroext %2, ptr noundef %3) #0 {
  %5 = alloca i1, align 1
  %6 = alloca ptr, align 8
  %7 = alloca ptr, align 8
  %8 = alloca i8, align 1
  %9 = alloca ptr, align 8
  store ptr %0, ptr %6, align 8
  store ptr %1, ptr %7, align 8
  %10 = zext i1 %2 to i8
  store i8 %10, ptr %8, align 1
  store ptr %3, ptr %9, align 8
  %11 = load ptr, ptr %7, align 8
  %12 = call i32 @g_ascii_strcasecmp(ptr noundef %11, ptr noundef @.str.60)
  %13 = icmp eq i32 %12, 0
  br i1 %13, label %14, label %17

14:                                               ; preds = %4
  %15 = load ptr, ptr %6, align 8
  %16 = getelementptr inbounds nuw %struct._fvalue_t, ptr %15, i32 0, i32 1
  store i64 1, ptr %16, align 8
  store i1 true, ptr %5, align 1
  br label %32

17:                                               ; preds = %4
  %18 = load ptr, ptr %7, align 8
  %19 = call i32 @g_ascii_strcasecmp(ptr noundef %18, ptr noundef @.str.61)
  %20 = icmp eq i32 %19, 0
  br i1 %20, label %21, label %24

21:                                               ; preds = %17
  %22 = load ptr, ptr %6, align 8
  %23 = getelementptr inbounds nuw %struct._fvalue_t, ptr %22, i32 0, i32 1
  store i64 0, ptr %23, align 8
  store i1 true, ptr %5, align 1
  br label %32

24:                                               ; preds = %17
  %25 = load ptr, ptr %9, align 8
  %26 = icmp ne ptr %25, null
  br i1 %26, label %27, label %31

27:                                               ; preds = %24
  %28 = load ptr, ptr %7, align 8
  %29 = call noalias ptr (ptr, ptr, ...) @wmem_strdup_printf(ptr noundef null, ptr noundef @.str.62, ptr noundef %28)
  %30 = load ptr, ptr %9, align 8
  store ptr %29, ptr %30, align 8
  br label %31

31:                                               ; preds = %27, %24
  store i1 false, ptr %5, align 1
  br label %32

32:                                               ; preds = %31, %21, %14
  %33 = load i1, ptr %5, align 1
  ret i1 %33
}