; Function Attrs: null_pointer_is_valid sspstrong uwtable
define internal noundef zeroext i1 @boolean_from_literal(ptr noundef writeonly captures(none) %0, ptr noundef %1, i1 zeroext %2, ptr noundef writeonly captures(address_is_null) %3) #0 {
  %5 = tail call i32 @g_ascii_strcasecmp(ptr noundef %1, ptr noundef nonnull @.str.60)
  %6 = icmp eq i32 %5, 0
  br i1 %6, label %7, label %9

7:                                                ; preds = %4
  %8 = getelementptr inbounds nuw i8, ptr %0, i64 8
  store i64 1, ptr %8, align 8
  br label %17

9:                                                ; preds = %4
  %10 = tail call i32 @g_ascii_strcasecmp(ptr noundef %1, ptr noundef nonnull @.str.61)
  %11 = icmp eq i32 %10, 0
  br i1 %11, label %12, label %14

12:                                               ; preds = %9
  %13 = getelementptr inbounds nuw i8, ptr %0, i64 8
  store i64 0, ptr %13, align 8
  br label %17

14:                                               ; preds = %9
  %.not = icmp eq ptr %3, null
  br i1 %.not, label %17, label %15

15:                                               ; preds = %14
  %16 = tail call noalias ptr (ptr, ptr, ...) @wmem_strdup_printf(ptr noundef null, ptr noundef nonnull @.str.62, ptr noundef %1)
  store ptr %16, ptr %3, align 8
  br label %17

17:                                               ; preds = %14, %15, %12, %7
  %.0 = phi i1 [ true, %7 ], [ true, %12 ], [ false, %15 ], [ false, %14 ]
  ret i1 %.0
}